; ModuleID = '63/1341.c'
source_filename = "63/1341.c"
target datalayout = "e-m:e-p270:32:32-p271:32:32-p272:64:64-i64:64-f80:128-n8:16:32:64-S128"
target triple = "x86_64-pc-linux-gnu"

@.str = private unnamed_addr constant [6 x i8] c"%d %d\00", align 1
@.str.1 = private unnamed_addr constant [3 x i8] c"%d\00", align 1
@.str.2 = private unnamed_addr constant [4 x i8] c"%d \00", align 1
@.str.3 = private unnamed_addr constant [2 x i8] c"\0A\00", align 1

; Function Attrs: noinline nounwind uwtable
define dso_local i32 @main() #0 {
  %1 = alloca i32, align 4
  %2 = alloca [100 x [100 x i32]], align 16
  %3 = alloca [100 x [100 x i32]], align 16
  %4 = alloca [100 x [100 x i32]], align 16
  %5 = alloca i32, align 4
  %6 = alloca i32, align 4
  %7 = alloca i32, align 4
  %8 = alloca i32, align 4
  %9 = alloca i32, align 4
  %10 = alloca i32, align 4
  %11 = alloca i32, align 4
  store i32 0, i32* %1, align 4
  %12 = bitcast [100 x [100 x i32]]* %4 to i8*
  call void @llvm.memset.p0i8.i64(i8* align 16 %12, i8 0, i64 40000, i1 false)
  %13 = call i32 (i8*, ...) @__isoc99_scanf(i8* getelementptr inbounds ([6 x i8], [6 x i8]* @.str, i64 0, i64 0), i32* %7, i32* %8)
  store i32 0, i32* %5, align 4
  br label %14

14:                                               ; preds = %37, %0
  %15 = load i32, i32* %5, align 4
  %16 = load i32, i32* %7, align 4
  %17 = sub nsw i32 %16, 1
  %18 = icmp sle i32 %15, %17
  br i1 %18, label %19, label %40

19:                                               ; preds = %14
  store i32 0, i32* %6, align 4
  br label %20

20:                                               ; preds = %33, %19
  %21 = load i32, i32* %6, align 4
  %22 = load i32, i32* %8, align 4
  %23 = sub nsw i32 %22, 1
  %24 = icmp sle i32 %21, %23
  br i1 %24, label %25, label %36

25:                                               ; preds = %20
  %26 = load i32, i32* %5, align 4
  %27 = sext i32 %26 to i64
  %28 = getelementptr inbounds [100 x [100 x i32]], [100 x [100 x i32]]* %2, i64 0, i64 %27
  %29 = load i32, i32* %6, align 4
  %30 = sext i32 %29 to i64
  %31 = getelementptr inbounds [100 x i32], [100 x i32]* %28, i64 0, i64 %30
  %32 = call i32 (i8*, ...) @__isoc99_scanf(i8* getelementptr inbounds ([3 x i8], [3 x i8]* @.str.1, i64 0, i64 0), i32* %31)
  br label %33

33:                                               ; preds = %25
  %34 = load i32, i32* %6, align 4
  %35 = add nsw i32 %34, 1
  store i32 %35, i32* %6, align 4
  br label %20

36:                                               ; preds = %20
  br label %37

37:                                               ; preds = %36
  %38 = load i32, i32* %5, align 4
  %39 = add nsw i32 %38, 1
  store i32 %39, i32* %5, align 4
  br label %14

40:                                               ; preds = %14
  %41 = call i32 (i8*, ...) @__isoc99_scanf(i8* getelementptr inbounds ([6 x i8], [6 x i8]* @.str, i64 0, i64 0), i32* %9, i32* %10)
  store i32 0, i32* %5, align 4
  br label %42

42:                                               ; preds = %65, %40
  %43 = load i32, i32* %5, align 4
  %44 = load i32, i32* %9, align 4
  %45 = sub nsw i32 %44, 1
  %46 = icmp sle i32 %43, %45
  br i1 %46, label %47, label %68

47:                                               ; preds = %42
  store i32 0, i32* %6, align 4
  br label %48

48:                                               ; preds = %61, %47
  %49 = load i32, i32* %6, align 4
  %50 = load i32, i32* %10, align 4
  %51 = sub nsw i32 %50, 1
  %52 = icmp sle i32 %49, %51
  br i1 %52, label %53, label %64

53:                                               ; preds = %48
  %54 = load i32, i32* %5, align 4
  %55 = sext i32 %54 to i64
  %56 = getelementptr inbounds [100 x [100 x i32]], [100 x [100 x i32]]* %3, i64 0, i64 %55
  %57 = load i32, i32* %6, align 4
  %58 = sext i32 %57 to i64
  %59 = getelementptr inbounds [100 x i32], [100 x i32]* %56, i64 0, i64 %58
  %60 = call i32 (i8*, ...) @__isoc99_scanf(i8* getelementptr inbounds ([3 x i8], [3 x i8]* @.str.1, i64 0, i64 0), i32* %59)
  br label %61

61:                                               ; preds = %53
  %62 = load i32, i32* %6, align 4
  %63 = add nsw i32 %62, 1
  store i32 %63, i32* %6, align 4
  br label %48

64:                                               ; preds = %48
  br label %65

65:                                               ; preds = %64
  %66 = load i32, i32* %5, align 4
  %67 = add nsw i32 %66, 1
  store i32 %67, i32* %5, align 4
  br label %42

68:                                               ; preds = %42
  store i32 0, i32* %5, align 4
  br label %69

69:                                               ; preds = %142, %68
  %70 = load i32, i32* %5, align 4
  %71 = load i32, i32* %7, align 4
  %72 = sub nsw i32 %71, 1
  %73 = icmp sle i32 %70, %72
  br i1 %73, label %74, label %145

74:                                               ; preds = %69
  store i32 0, i32* %6, align 4
  br label %75

75:                                               ; preds = %137, %74
  %76 = load i32, i32* %6, align 4
  %77 = load i32, i32* %10, align 4
  %78 = sub nsw i32 %77, 1
  %79 = icmp sle i32 %76, %78
  br i1 %79, label %80, label %140

80:                                               ; preds = %75
  store i32 0, i32* %11, align 4
  br label %81

81:                                               ; preds = %110, %80
  %82 = load i32, i32* %11, align 4
  %83 = load i32, i32* %8, align 4
  %84 = sub nsw i32 %83, 1
  %85 = icmp sle i32 %82, %84
  br i1 %85, label %86, label %113

86:                                               ; preds = %81
  %87 = load i32, i32* %5, align 4
  %88 = sext i32 %87 to i64
  %89 = getelementptr inbounds [100 x [100 x i32]], [100 x [100 x i32]]* %2, i64 0, i64 %88
  %90 = load i32, i32* %11, align 4
  %91 = sext i32 %90 to i64
  %92 = getelementptr inbounds [100 x i32], [100 x i32]* %89, i64 0, i64 %91
  %93 = load i32, i32* %92, align 4
  %94 = load i32, i32* %11, align 4
  %95 = sext i32 %94 to i64
  %96 = getelementptr inbounds [100 x [100 x i32]], [100 x [100 x i32]]* %3, i64 0, i64 %95
  %97 = load i32, i32* %6, align 4
  %98 = sext i32 %97 to i64
  %99 = getelementptr inbounds [100 x i32], [100 x i32]* %96, i64 0, i64 %98
  %100 = load i32, i32* %99, align 4
  %101 = mul nsw i32 %93, %100
  %102 = load i32, i32* %5, align 4
  %103 = sext i32 %102 to i64
  %104 = getelementptr inbounds [100 x [100 x i32]], [100 x [100 x i32]]* %4, i64 0, i64 %103
  %105 = load i32, i32* %6, align 4
  %106 = sext i32 %105 to i64
  %107 = getelementptr inbounds [100 x i32], [100 x i32]* %104, i64 0, i64 %106
  %108 = load i32, i32* %107, align 4
  %109 = add nsw i32 %108, %101
  store i32 %109, i32* %107, align 4
  br label %110

110:                                              ; preds = %86
  %111 = load i32, i32* %11, align 4
  %112 = add nsw i32 %111, 1
  store i32 %112, i32* %11, align 4
  br label %81

113:                                              ; preds = %81
  %114 = load i32, i32* %6, align 4
  %115 = load i32, i32* %10, align 4
  %116 = sub nsw i32 %115, 1
  %117 = icmp eq i32 %114, %116
  br i1 %117, label %118, label %127

118:                                              ; preds = %113
  %119 = load i32, i32* %5, align 4
  %120 = sext i32 %119 to i64
  %121 = getelementptr inbounds [100 x [100 x i32]], [100 x [100 x i32]]* %4, i64 0, i64 %120
  %122 = load i32, i32* %6, align 4
  %123 = sext i32 %122 to i64
  %124 = getelementptr inbounds [100 x i32], [100 x i32]* %121, i64 0, i64 %123
  %125 = load i32, i32* %124, align 4
  %126 = call i32 (i8*, ...) @printf(i8* getelementptr inbounds ([3 x i8], [3 x i8]* @.str.1, i64 0, i64 0), i32 %125)
  br label %136

127:                                              ; preds = %113
  %128 = load i32, i32* %5, align 4
  %129 = sext i32 %128 to i64
  %130 = getelementptr inbounds [100 x [100 x i32]], [100 x [100 x i32]]* %4, i64 0, i64 %129
  %131 = load i32, i32* %6, align 4
  %132 = sext i32 %131 to i64
  %133 = getelementptr inbounds [100 x i32], [100 x i32]* %130, i64 0, i64 %132
  %134 = load i32, i32* %133, align 4
  %135 = call i32 (i8*, ...) @printf(i8* getelementptr inbounds ([4 x i8], [4 x i8]* @.str.2, i64 0, i64 0), i32 %134)
  br label %136

136:                                              ; preds = %127, %118
  br label %137

137:                                              ; preds = %136
  %138 = load i32, i32* %6, align 4
  %139 = add nsw i32 %138, 1
  store i32 %139, i32* %6, align 4
  br label %75

140:                                              ; preds = %75
  %141 = call i32 (i8*, ...) @printf(i8* getelementptr inbounds ([2 x i8], [2 x i8]* @.str.3, i64 0, i64 0))
  br label %142

142:                                              ; preds = %140
  %143 = load i32, i32* %5, align 4
  %144 = add nsw i32 %143, 1
  store i32 %144, i32* %5, align 4
  br label %69

145:                                              ; preds = %69
  %146 = load i32, i32* %1, align 4
  ret i32 %146
}

; Function Attrs: argmemonly nounwind willreturn
declare void @llvm.memset.p0i8.i64(i8* nocapture writeonly, i8, i64, i1 immarg) #1

declare dso_local i32 @__isoc99_scanf(i8*, ...) #2

declare dso_local i32 @printf(i8*, ...) #2


!llvm.module.flags = !{!0}
!llvm.ident = !{!1}

!0 = !{i32 1, !"wchar_size", i32 4}
!1 = !{!"clang version 10.0.0-4ubuntu1 "}
